Certificate:
    Data:
        Version: 3 (0x2)
        Serial Number: 11 (0xb)
        Signature Algorithm: sha1WithRSAEncryption
        Issuer: C=BR, ST=SP, L=SaoPaulo, O=BRLink, CN=BRLink CA/emailAddress=suporte@brlink.com.br
        Validity
            Not Before: May 23 18:51:21 2013 GMT
            Not After : May 21 18:51:21 2023 GMT
        Subject: C=BR, ST=SP, L=SaoPaulo, O=BRLink, CN=client04/emailAddress=suporte@brlink.com.br
        Subject Public Key Info:
            Public Key Algorithm: rsaEncryption
            RSA Public Key: (1024 bit)
                Modulus (1024 bit):
                    00:cf:b7:bc:7e:77:1d:f7:72:d8:7c:07:84:37:b2:
                    60:18:ca:4f:0d:67:f5:44:f3:1a:59:e3:7f:f6:6c:
                    13:cb:8a:ab:7c:c7:19:68:80:43:62:fe:41:ad:b4:
                    08:10:38:82:90:2a:04:93:88:c8:b2:40:08:cb:bf:
                    c6:59:92:25:44:6f:72:76:09:95:d6:bf:a6:07:e7:
                    7b:47:ab:ba:48:29:84:ba:a0:43:54:0b:4f:88:81:
                    fa:aa:82:ea:c3:b0:31:50:cc:69:31:a9:02:be:49:
                    ca:0e:d9:e8:de:42:ac:13:60:80:c7:5d:a9:9a:2e:
                    05:3f:b5:2a:7b:0d:c0:6d:09
                Exponent: 65537 (0x10001)
        X509v3 extensions:
            X509v3 Basic Constraints: 
                CA:FALSE
            Netscape Comment: 
                Easy-RSA Generated Certificate
            X509v3 Subject Key Identifier: 
                F2:CC:4D:B6:C5:5B:09:1F:87:70:F5:1A:21:A7:3F:53:45:15:80:B3
            X509v3 Authority Key Identifier: 
                keyid:AD:07:8B:1D:A1:ED:5F:A3:F4:9C:AF:AF:AE:F9:26:51:20:8C:95:2F
                DirName:/C=BR/ST=SP/L=SaoPaulo/O=BRLink/CN=BRLink CA/emailAddress=suporte@brlink.com.br
                serial:C5:96:7A:27:A2:D6:44:EA

            X509v3 Extended Key Usage: 
                TLS Web Client Authentication
            X509v3 Key Usage: 
                Digital Signature
    Signature Algorithm: sha1WithRSAEncryption
        62:94:2b:2f:e4:27:14:2e:e0:f1:94:2d:f8:d5:80:fe:53:56:
        c3:9b:c2:07:b8:b2:70:ef:e8:55:e5:72:b3:f5:f2:72:3c:1f:
        1c:61:ee:1c:6d:a6:67:a2:27:a2:c9:e2:c7:06:e4:e8:45:84:
        11:47:3d:48:28:d1:62:2b:93:f2:ce:24:98:7d:48:14:47:31:
        81:98:da:0e:89:1d:cc:99:5c:2c:25:08:a9:24:1c:0f:5c:c6:
        5d:9e:eb:dd:d3:10:99:6d:92:95:54:8b:88:ad:dc:9f:e9:8f:
        37:8a:e2:f6:49:5a:41:b5:38:79:40:35:f0:c2:bc:08:2c:40:
        16:af
-----BEGIN CERTIFICATE-----
MIIDkzCCAvygAwIBAgIBCzANBgkqhkiG9w0BAQUFADB4MQswCQYDVQQGEwJCUjEL
MAkGA1UECBMCU1AxETAPBgNVBAcTCFNhb1BhdWxvMQ8wDQYDVQQKEwZCUkxpbmsx
EjAQBgNVBAMTCUJSTGluayBDQTEkMCIGCSqGSIb3DQEJARYVc3Vwb3J0ZUBicmxp
bmsuY29tLmJyMB4XDTEzMDUyMzE4NTEyMVoXDTIzMDUyMTE4NTEyMVowdzELMAkG
A1UEBhMCQlIxCzAJBgNVBAgTAlNQMREwDwYDVQQHEwhTYW9QYXVsbzEPMA0GA1UE
ChMGQlJMaW5rMREwDwYDVQQDEwhjbGllbnQwNDEkMCIGCSqGSIb3DQEJARYVc3Vw
b3J0ZUBicmxpbmsuY29tLmJyMIGfMA0GCSqGSIb3DQEBAQUAA4GNADCBiQKBgQDP
t7x+dx33cth8B4Q3smAYyk8NZ/VE8xpZ43/2bBPLiqt8xxlogENi/kGttAgQOIKQ
KgSTiMiyQAjLv8ZZkiVEb3J2CZXWv6YH53tHq7pIKYS6oENUC0+IgfqqgurDsDFQ
zGkxqQK+ScoO2ejeQqwTYIDHXamaLgU/tSp7DcBtCQIDAQABo4IBLDCCASgwCQYD
VR0TBAIwADAtBglghkgBhvhCAQ0EIBYeRWFzeS1SU0EgR2VuZXJhdGVkIENlcnRp
ZmljYXRlMB0GA1UdDgQWBBTyzE22xVsJH4dw9Rohpz9TRRWAszCBqgYDVR0jBIGi
MIGfgBStB4sdoe1fo/Scr6+u+SZRIIyVL6F8pHoweDELMAkGA1UEBhMCQlIxCzAJ
BgNVBAgTAlNQMREwDwYDVQQHEwhTYW9QYXVsbzEPMA0GA1UEChMGQlJMaW5rMRIw
EAYDVQQDEwlCUkxpbmsgQ0ExJDAiBgkqhkiG9w0BCQEWFXN1cG9ydGVAYnJsaW5r
LmNvbS5icoIJAMWWeiei1kTqMBMGA1UdJQQMMAoGCCsGAQUFBwMCMAsGA1UdDwQE
AwIHgDANBgkqhkiG9w0BAQUFAAOBgQBilCsv5CcULuDxlC341YD+U1bDm8IHuLJw
7+hV5XKz9fJyPB8cYe4cbaZnoieiyeLHBuToRYQRRz1IKNFiK5PyziSYfUgURzGB
mNoOiR3MmVwsJQipJBwPXMZdnuvd0xCZbZKVVIuIrdyf6Y83iuL2SVpBtTh5QDXw
wrwILEAWrw==
-----END CERTIFICATE-----
