Certificate:
    Data:
        Version: 3 (0x2)
        Serial Number: 8 (0x8)
        Signature Algorithm: sha1WithRSAEncryption
        Issuer: C=BR, ST=SP, L=SaoPaulo, O=BRLink, CN=BRLink CA/emailAddress=suporte@brlink.com.br
        Validity
            Not Before: May 23 18:45:42 2013 GMT
            Not After : May 21 18:45:42 2023 GMT
        Subject: C=BR, ST=SP, L=SaoPaulo, O=BRLink, CN=client01/emailAddress=suporte@brlink.com.br
        Subject Public Key Info:
            Public Key Algorithm: rsaEncryption
            RSA Public Key: (1024 bit)
                Modulus (1024 bit):
                    00:cb:51:cf:b1:45:09:5f:4c:01:cf:21:bc:81:2e:
                    d8:4a:02:27:2b:8a:ec:4d:be:1e:2e:92:0f:d6:a1:
                    b7:09:0f:e6:48:6e:e0:12:04:90:aa:54:e7:ae:95:
                    5c:04:04:13:01:da:9d:cd:8b:7d:9c:bd:37:89:fa:
                    b4:76:6b:3d:40:dd:ea:d2:2f:44:0c:ce:d4:fb:25:
                    08:48:77:d3:e9:80:da:30:49:e5:c4:78:41:ef:67:
                    ff:e9:78:35:34:8e:51:ac:86:a2:2b:75:8b:8b:54:
                    e9:99:05:d9:0f:0b:0d:e8:73:2a:2b:ff:30:d8:33:
                    75:13:cf:90:7a:b4:68:73:e3
                Exponent: 65537 (0x10001)
        X509v3 extensions:
            X509v3 Basic Constraints: 
                CA:FALSE
            Netscape Comment: 
                Easy-RSA Generated Certificate
            X509v3 Subject Key Identifier: 
                3C:1B:41:E1:A8:55:A6:6A:73:E0:75:AD:97:B0:5F:5F:1D:3E:E4:24
            X509v3 Authority Key Identifier: 
                keyid:AD:07:8B:1D:A1:ED:5F:A3:F4:9C:AF:AF:AE:F9:26:51:20:8C:95:2F
                DirName:/C=BR/ST=SP/L=SaoPaulo/O=BRLink/CN=BRLink CA/emailAddress=suporte@brlink.com.br
                serial:C5:96:7A:27:A2:D6:44:EA

            X509v3 Extended Key Usage: 
                TLS Web Client Authentication
            X509v3 Key Usage: 
                Digital Signature
    Signature Algorithm: sha1WithRSAEncryption
        96:9c:39:17:8e:3e:bb:d4:4e:e0:cd:bf:9b:92:07:34:96:74:
        c1:64:c6:ec:37:c5:ad:07:22:94:ab:c1:f1:6d:a0:ca:2e:29:
        c8:15:2a:00:d3:e2:b6:0f:a2:71:c8:43:37:9f:70:e5:3a:ae:
        c9:0b:c7:e6:83:d4:30:64:db:1f:95:3a:24:1d:00:6b:90:6d:
        24:a1:ae:39:08:db:f5:5a:1f:c9:90:37:3d:8a:2d:fd:92:d1:
        aa:5b:e3:0e:34:c3:f0:33:15:da:ef:05:f9:a5:38:93:85:44:
        14:c1:4a:f8:eb:44:5c:91:77:f7:8e:15:12:19:15:eb:87:c9:
        7b:2c
-----BEGIN CERTIFICATE-----
MIIDkzCCAvygAwIBAgIBCDANBgkqhkiG9w0BAQUFADB4MQswCQYDVQQGEwJCUjEL
MAkGA1UECBMCU1AxETAPBgNVBAcTCFNhb1BhdWxvMQ8wDQYDVQQKEwZCUkxpbmsx
EjAQBgNVBAMTCUJSTGluayBDQTEkMCIGCSqGSIb3DQEJARYVc3Vwb3J0ZUBicmxp
bmsuY29tLmJyMB4XDTEzMDUyMzE4NDU0MloXDTIzMDUyMTE4NDU0MlowdzELMAkG
A1UEBhMCQlIxCzAJBgNVBAgTAlNQMREwDwYDVQQHEwhTYW9QYXVsbzEPMA0GA1UE
ChMGQlJMaW5rMREwDwYDVQQDEwhjbGllbnQwMTEkMCIGCSqGSIb3DQEJARYVc3Vw
b3J0ZUBicmxpbmsuY29tLmJyMIGfMA0GCSqGSIb3DQEBAQUAA4GNADCBiQKBgQDL
Uc+xRQlfTAHPIbyBLthKAicriuxNvh4ukg/WobcJD+ZIbuASBJCqVOeulVwEBBMB
2p3Ni32cvTeJ+rR2az1A3erSL0QMztT7JQhId9PpgNowSeXEeEHvZ//peDU0jlGs
hqIrdYuLVOmZBdkPCw3ocyor/zDYM3UTz5B6tGhz4wIDAQABo4IBLDCCASgwCQYD
VR0TBAIwADAtBglghkgBhvhCAQ0EIBYeRWFzeS1SU0EgR2VuZXJhdGVkIENlcnRp
ZmljYXRlMB0GA1UdDgQWBBQ8G0HhqFWmanPgda2XsF9fHT7kJDCBqgYDVR0jBIGi
MIGfgBStB4sdoe1fo/Scr6+u+SZRIIyVL6F8pHoweDELMAkGA1UEBhMCQlIxCzAJ
BgNVBAgTAlNQMREwDwYDVQQHEwhTYW9QYXVsbzEPMA0GA1UEChMGQlJMaW5rMRIw
EAYDVQQDEwlCUkxpbmsgQ0ExJDAiBgkqhkiG9w0BCQEWFXN1cG9ydGVAYnJsaW5r
LmNvbS5icoIJAMWWeiei1kTqMBMGA1UdJQQMMAoGCCsGAQUFBwMCMAsGA1UdDwQE
AwIHgDANBgkqhkiG9w0BAQUFAAOBgQCWnDkXjj671E7gzb+bkgc0lnTBZMbsN8Wt
ByKUq8HxbaDKLinIFSoA0+K2D6JxyEM3n3DlOq7JC8fmg9QwZNsflTokHQBrkG0k
oa45CNv1Wh/JkDc9ii39ktGqW+MONMPwMxXa7wX5pTiThUQUwUr460RckXf3jhUS
GRXrh8l7LA==
-----END CERTIFICATE-----
