Certificate:
    Data:
        Version: 3 (0x2)
        Serial Number: 10 (0xa)
        Signature Algorithm: sha1WithRSAEncryption
        Issuer: C=BR, ST=SP, L=SaoPaulo, O=BRLink, CN=BRLink CA/emailAddress=suporte@brlink.com.br
        Validity
            Not Before: May 23 18:48:59 2013 GMT
            Not After : May 21 18:48:59 2023 GMT
        Subject: C=BR, ST=SP, L=SaoPaulo, O=BRLink, CN=client03/emailAddress=suporte@brlink.com.br
        Subject Public Key Info:
            Public Key Algorithm: rsaEncryption
            RSA Public Key: (1024 bit)
                Modulus (1024 bit):
                    00:9f:0d:ae:95:9b:e0:8c:7b:1c:f0:45:b2:e7:c3:
                    fd:1b:b4:e1:7e:38:f0:db:79:a2:a7:be:a4:77:f4:
                    0d:ed:7c:e3:b0:3c:b7:34:54:97:a9:5f:14:c1:86:
                    50:9f:2b:a1:b6:d5:41:53:20:b1:77:05:34:c6:cb:
                    2d:1e:cf:86:2d:29:67:ca:cf:d3:9a:ca:6e:1c:4b:
                    11:b6:8f:ab:af:49:76:1f:1b:fa:f4:fc:16:b2:f9:
                    3e:68:0f:20:a2:e0:e8:25:9c:6f:b8:87:5c:42:1f:
                    2a:47:99:b5:28:0b:9b:16:ab:c7:da:88:af:d9:5c:
                    d7:93:8b:84:64:0d:20:32:47
                Exponent: 65537 (0x10001)
        X509v3 extensions:
            X509v3 Basic Constraints: 
                CA:FALSE
            Netscape Comment: 
                Easy-RSA Generated Certificate
            X509v3 Subject Key Identifier: 
                10:E0:4B:30:D0:39:59:3B:B0:7E:4F:D8:F2:B0:D7:3A:A0:3F:BD:2B
            X509v3 Authority Key Identifier: 
                keyid:AD:07:8B:1D:A1:ED:5F:A3:F4:9C:AF:AF:AE:F9:26:51:20:8C:95:2F
                DirName:/C=BR/ST=SP/L=SaoPaulo/O=BRLink/CN=BRLink CA/emailAddress=suporte@brlink.com.br
                serial:C5:96:7A:27:A2:D6:44:EA

            X509v3 Extended Key Usage: 
                TLS Web Client Authentication
            X509v3 Key Usage: 
                Digital Signature
    Signature Algorithm: sha1WithRSAEncryption
        7c:3d:65:a7:87:46:ce:7c:9a:2e:ea:48:fc:e1:1c:e8:c6:f0:
        83:13:cd:de:53:7a:8d:d0:d0:00:e7:53:74:2d:e6:be:be:47:
        24:c4:c2:29:64:f9:e7:4d:5a:2f:05:3a:f1:c0:a4:aa:29:48:
        8f:44:5b:9b:27:8e:15:0f:ca:df:44:33:8a:a7:b7:06:89:78:
        5c:9d:fb:e9:a9:8e:b8:34:01:bb:98:e7:8f:d9:f4:e8:70:48:
        f3:2b:7e:a3:ff:87:4a:17:a6:82:02:26:63:c5:3f:d0:21:12:
        06:56:0c:1c:ba:57:8c:22:b8:8a:85:2a:2e:c3:78:3f:35:0a:
        09:7c
-----BEGIN CERTIFICATE-----
MIIDkzCCAvygAwIBAgIBCjANBgkqhkiG9w0BAQUFADB4MQswCQYDVQQGEwJCUjEL
MAkGA1UECBMCU1AxETAPBgNVBAcTCFNhb1BhdWxvMQ8wDQYDVQQKEwZCUkxpbmsx
EjAQBgNVBAMTCUJSTGluayBDQTEkMCIGCSqGSIb3DQEJARYVc3Vwb3J0ZUBicmxp
bmsuY29tLmJyMB4XDTEzMDUyMzE4NDg1OVoXDTIzMDUyMTE4NDg1OVowdzELMAkG
A1UEBhMCQlIxCzAJBgNVBAgTAlNQMREwDwYDVQQHEwhTYW9QYXVsbzEPMA0GA1UE
ChMGQlJMaW5rMREwDwYDVQQDEwhjbGllbnQwMzEkMCIGCSqGSIb3DQEJARYVc3Vw
b3J0ZUBicmxpbmsuY29tLmJyMIGfMA0GCSqGSIb3DQEBAQUAA4GNADCBiQKBgQCf
Da6Vm+CMexzwRbLnw/0btOF+OPDbeaKnvqR39A3tfOOwPLc0VJepXxTBhlCfK6G2
1UFTILF3BTTGyy0ez4YtKWfKz9Oaym4cSxG2j6uvSXYfG/r0/Bay+T5oDyCi4Ogl
nG+4h1xCHypHmbUoC5sWq8faiK/ZXNeTi4RkDSAyRwIDAQABo4IBLDCCASgwCQYD
VR0TBAIwADAtBglghkgBhvhCAQ0EIBYeRWFzeS1SU0EgR2VuZXJhdGVkIENlcnRp
ZmljYXRlMB0GA1UdDgQWBBQQ4Esw0DlZO7B+T9jysNc6oD+9KzCBqgYDVR0jBIGi
MIGfgBStB4sdoe1fo/Scr6+u+SZRIIyVL6F8pHoweDELMAkGA1UEBhMCQlIxCzAJ
BgNVBAgTAlNQMREwDwYDVQQHEwhTYW9QYXVsbzEPMA0GA1UEChMGQlJMaW5rMRIw
EAYDVQQDEwlCUkxpbmsgQ0ExJDAiBgkqhkiG9w0BCQEWFXN1cG9ydGVAYnJsaW5r
LmNvbS5icoIJAMWWeiei1kTqMBMGA1UdJQQMMAoGCCsGAQUFBwMCMAsGA1UdDwQE
AwIHgDANBgkqhkiG9w0BAQUFAAOBgQB8PWWnh0bOfJou6kj84RzoxvCDE83eU3qN
0NAA51N0Lea+vkckxMIpZPnnTVovBTrxwKSqKUiPRFubJ44VD8rfRDOKp7cGiXhc
nfvpqY64NAG7mOeP2fTocEjzK36j/4dKF6aCAiZjxT/QIRIGVgwculeMIriKhSou
w3g/NQoJfA==
-----END CERTIFICATE-----
