Certificate:
    Data:
        Version: 3 (0x2)
        Serial Number: 9 (0x9)
        Signature Algorithm: sha1WithRSAEncryption
        Issuer: C=BR, ST=SP, L=SaoPaulo, O=BRLink, CN=BRLink CA/emailAddress=suporte@brlink.com.br
        Validity
            Not Before: May 23 18:46:09 2013 GMT
            Not After : May 21 18:46:09 2023 GMT
        Subject: C=BR, ST=SP, L=SaoPaulo, O=BRLink, CN=client02/emailAddress=suporte@brlink.com.br
        Subject Public Key Info:
            Public Key Algorithm: rsaEncryption
            RSA Public Key: (1024 bit)
                Modulus (1024 bit):
                    00:ba:91:82:da:c6:6e:54:ed:35:4e:96:38:80:5f:
                    d9:e6:9b:f7:ac:03:b4:3c:2f:6c:53:32:ec:2c:ea:
                    60:cd:d3:28:b3:8d:11:ff:c4:b1:bb:77:19:4c:8f:
                    82:36:ff:20:cf:f6:79:9e:2f:1e:ac:1c:4d:58:5f:
                    f4:7d:13:ad:9a:65:0d:c3:a7:17:69:7b:18:6c:9a:
                    d8:47:6e:fc:f3:2e:79:ba:f0:00:e8:cb:d8:55:62:
                    14:2e:77:0a:45:de:95:f0:cb:06:f0:c4:6a:7a:bb:
                    aa:a1:b3:67:ce:11:dd:78:6a:d3:0e:9b:40:e8:1f:
                    c7:25:56:01:34:6e:bd:0b:8b
                Exponent: 65537 (0x10001)
        X509v3 extensions:
            X509v3 Basic Constraints: 
                CA:FALSE
            Netscape Comment: 
                Easy-RSA Generated Certificate
            X509v3 Subject Key Identifier: 
                A4:70:22:86:63:66:C9:ED:D2:13:57:AB:95:74:01:97:5F:76:2E:D8
            X509v3 Authority Key Identifier: 
                keyid:AD:07:8B:1D:A1:ED:5F:A3:F4:9C:AF:AF:AE:F9:26:51:20:8C:95:2F
                DirName:/C=BR/ST=SP/L=SaoPaulo/O=BRLink/CN=BRLink CA/emailAddress=suporte@brlink.com.br
                serial:C5:96:7A:27:A2:D6:44:EA

            X509v3 Extended Key Usage: 
                TLS Web Client Authentication
            X509v3 Key Usage: 
                Digital Signature
    Signature Algorithm: sha1WithRSAEncryption
        44:10:1f:8a:c3:64:67:52:ca:4b:24:c9:24:1b:51:9d:62:71:
        30:c7:66:e1:59:66:b0:03:04:a5:cd:d0:2f:b7:10:14:c7:a6:
        c5:b3:ba:0b:7a:1e:39:4a:f9:b8:63:19:17:bc:7a:08:08:f3:
        1f:4d:52:f4:97:60:95:2b:71:e0:14:90:29:50:12:e7:d1:1a:
        ab:9c:c7:2e:b9:bc:e7:4e:dd:7c:28:19:e6:1e:0c:10:e8:14:
        34:14:da:9a:3b:80:81:f6:1b:b9:15:de:89:31:5f:1e:3a:3e:
        7c:03:7d:8b:47:5e:0d:88:9e:a1:ae:e5:43:3c:7c:c8:a3:13:
        6a:74
-----BEGIN CERTIFICATE-----
MIIDkzCCAvygAwIBAgIBCTANBgkqhkiG9w0BAQUFADB4MQswCQYDVQQGEwJCUjEL
MAkGA1UECBMCU1AxETAPBgNVBAcTCFNhb1BhdWxvMQ8wDQYDVQQKEwZCUkxpbmsx
EjAQBgNVBAMTCUJSTGluayBDQTEkMCIGCSqGSIb3DQEJARYVc3Vwb3J0ZUBicmxp
bmsuY29tLmJyMB4XDTEzMDUyMzE4NDYwOVoXDTIzMDUyMTE4NDYwOVowdzELMAkG
A1UEBhMCQlIxCzAJBgNVBAgTAlNQMREwDwYDVQQHEwhTYW9QYXVsbzEPMA0GA1UE
ChMGQlJMaW5rMREwDwYDVQQDEwhjbGllbnQwMjEkMCIGCSqGSIb3DQEJARYVc3Vw
b3J0ZUBicmxpbmsuY29tLmJyMIGfMA0GCSqGSIb3DQEBAQUAA4GNADCBiQKBgQC6
kYLaxm5U7TVOljiAX9nmm/esA7Q8L2xTMuws6mDN0yizjRH/xLG7dxlMj4I2/yDP
9nmeLx6sHE1YX/R9E62aZQ3DpxdpexhsmthHbvzzLnm68ADoy9hVYhQudwpF3pXw
ywbwxGp6u6qhs2fOEd14atMOm0DoH8clVgE0br0LiwIDAQABo4IBLDCCASgwCQYD
VR0TBAIwADAtBglghkgBhvhCAQ0EIBYeRWFzeS1SU0EgR2VuZXJhdGVkIENlcnRp
ZmljYXRlMB0GA1UdDgQWBBSkcCKGY2bJ7dITV6uVdAGXX3Yu2DCBqgYDVR0jBIGi
MIGfgBStB4sdoe1fo/Scr6+u+SZRIIyVL6F8pHoweDELMAkGA1UEBhMCQlIxCzAJ
BgNVBAgTAlNQMREwDwYDVQQHEwhTYW9QYXVsbzEPMA0GA1UEChMGQlJMaW5rMRIw
EAYDVQQDEwlCUkxpbmsgQ0ExJDAiBgkqhkiG9w0BCQEWFXN1cG9ydGVAYnJsaW5r
LmNvbS5icoIJAMWWeiei1kTqMBMGA1UdJQQMMAoGCCsGAQUFBwMCMAsGA1UdDwQE
AwIHgDANBgkqhkiG9w0BAQUFAAOBgQBEEB+Kw2RnUspLJMkkG1GdYnEwx2bhWWaw
AwSlzdAvtxAUx6bFs7oLeh45Svm4YxkXvHoICPMfTVL0l2CVK3HgFJApUBLn0Rqr
nMcuubznTt18KBnmHgwQ6BQ0FNqaO4CB9hu5Fd6JMV8eOj58A32LR14NiJ6hruVD
PHzIoxNqdA==
-----END CERTIFICATE-----
